target datalayout = "e-m:e-p270:32:32-p271:32:32-p272:64:64-i64:64-i128:128-f80:128-n8:16:32:64-S128"
target triple = "x86_64-pc-linux-gnu"

%class.FunctionInvocation = type { ptr, i32, %"class.std::vector.13", i8, i8, ptr }
%"class.std::vector.13" = type { %"struct.std::_Vector_base.14" }
%"struct.std::_Vector_base.14" = type { %"struct.std::_Vector_base<const Expression *, std::allocator<const Expression *>>::_Vector_impl" }
%"struct.std::_Vector_base<const Expression *, std::allocator<const Expression *>>::_Vector_impl" = type { %"struct.std::_Vector_base<const Expression *, std::allocator<const Expression *>>::_Vector_impl_data" }
%"struct.std::_Vector_base<const Expression *, std::allocator<const Expression *>>::_Vector_impl_data" = type { ptr, ptr, ptr }
%class.FunctionInvocationUser = type <{ %class.FunctionInvocation, ptr, i8, [7 x i8] }>
%class.Function = type { %"class.std::__cxx11::basic_string", %"class.std::vector.21", ptr, %class.Effect, %"class.std::vector.26", %"class.std::vector.26", ptr, ptr, ptr, %"class.std::vector.8", %"class.std::vector.8", i8, i8, i8, i8, i32, %class.Effect, i8, %"class.std::__cxx11::basic_string", i32, %"class.std::vector.8" }
%"class.std::vector.21" = type { %"struct.std::_Vector_base.22" }
%"struct.std::_Vector_base.22" = type { %"struct.std::_Vector_base<Variable *, std::allocator<Variable *>>::_Vector_impl" }
%"struct.std::_Vector_base<Variable *, std::allocator<Variable *>>::_Vector_impl" = type { %"struct.std::_Vector_base<Variable *, std::allocator<Variable *>>::_Vector_impl_data" }
%"struct.std::_Vector_base<Variable *, std::allocator<Variable *>>::_Vector_impl_data" = type { ptr, ptr, ptr }
%"class.std::vector.26" = type { %"struct.std::_Vector_base.27" }
%"struct.std::_Vector_base.27" = type { %"struct.std::_Vector_base<Block *, std::allocator<Block *>>::_Vector_impl" }
%"struct.std::_Vector_base<Block *, std::allocator<Block *>>::_Vector_impl" = type { %"struct.std::_Vector_base<Block *, std::allocator<Block *>>::_Vector_impl_data" }
%"struct.std::_Vector_base<Block *, std::allocator<Block *>>::_Vector_impl_data" = type { ptr, ptr, ptr }
%class.Effect = type <{ %"class.std::vector.8", %"class.std::vector.8", %"class.std::vector.8", i8, i8, [6 x i8] }>
%"class.std::__cxx11::basic_string" = type { %"struct.std::__cxx11::basic_string<char>::_Alloc_hider", i64, %union.anon }
%"struct.std::__cxx11::basic_string<char>::_Alloc_hider" = type { ptr }
%union.anon = type { i64, [8 x i8] }
%"class.std::vector.8" = type { %"struct.std::_Vector_base.9" }
%"struct.std::_Vector_base.9" = type { %"struct.std::_Vector_base<const Variable *, std::allocator<const Variable *>>::_Vector_impl" }
%"struct.std::_Vector_base<const Variable *, std::allocator<const Variable *>>::_Vector_impl" = type { %"struct.std::_Vector_base<const Variable *, std::allocator<const Variable *>>::_Vector_impl_data" }
%"struct.std::_Vector_base<const Variable *, std::allocator<const Variable *>>::_Vector_impl_data" = type { ptr, ptr, ptr }
%class.CVQualifiers = type { ptr, i8, i8, %"class.std::vector.92", %"class.std::vector.92" }
%"class.std::vector.92" = type { %"struct.std::_Bvector_base" }
%"struct.std::_Bvector_base" = type { %"struct.std::_Bvector_base<std::allocator<bool>>::_Bvector_impl" }
%"struct.std::_Bvector_base<std::allocator<bool>>::_Bvector_impl" = type { %"struct.std::_Bvector_base<std::allocator<bool>>::_Bvector_impl_data" }
%"struct.std::_Bvector_base<std::allocator<bool>>::_Bvector_impl_data" = type { %"struct.std::_Bit_iterator", %"struct.std::_Bit_iterator", ptr }
%"struct.std::_Bit_iterator" = type { %"struct.std::_Bit_iterator_base.base", [4 x i8] }
%"struct.std::_Bit_iterator_base.base" = type <{ ptr, i32 }>
%class.Variable = type { ptr, %"class.std::vector.21", %"class.std::__cxx11::basic_string", ptr, ptr, i8, i8, i8, i8, i8, i8, ptr, i8, %class.CVQualifiers }

@_ZTI22FunctionInvocationUser = external constant ptr
@_ZTI18FunctionInvocation = dso_local constant { ptr, ptr } { ptr getelementptr inbounds (ptr, ptr @_ZTVN10__cxxabiv117__class_type_infoE, i64 2), ptr @_ZTS18FunctionInvocation }, align 8

; Function Attrs: mustprogress nounwind uwtable
define linkonce_odr dso_local noundef ptr @_ZNK22FunctionInvocationUser8get_funcEv(ptr noundef nonnull align 8 dereferenceable(65) %0) #6 comdat align 2 {
  %2 = alloca ptr, align 8
  store ptr %0, ptr %2, align 8, !tbaa !21
  %3 = load ptr, ptr %2, align 8
  %4 = getelementptr inbounds nuw %class.FunctionInvocationUser, ptr %3, i32 0, i32 1
  %5 = load ptr, ptr %4, align 8, !tbaa !32
  ret ptr %5
}

; Function Attrs: mustprogress uwtable
define dso_local void @_ZNK18FunctionInvocation14get_qualifiersEv(ptr dead_on_unwind noalias writable sret(%class.CVQualifiers) align 8 %0, ptr noundef nonnull align 8 dereferenceable(56) %1) #4 align 2 personality ptr @__gxx_personality_v0 {
  %3 = alloca ptr, align 8
  %4 = alloca ptr, align 8
  %5 = alloca i1, align 1
  %6 = alloca ptr, align 8
  %7 = alloca ptr, align 8
  %8 = alloca i32, align 4
  store ptr %0, ptr %3, align 8
  store ptr %1, ptr %4, align 8, !tbaa !15
  %9 = load ptr, ptr %4, align 8
  store i1 false, ptr %5, align 1
  call void @_ZN12CVQualifiersC1Ev(ptr noundef nonnull align 8 dereferenceable(96) %0)
  %10 = getelementptr inbounds nuw %class.FunctionInvocation, ptr %9, i32 0, i32 1
  %11 = load i32, ptr %10, align 8, !tbaa !147
  %12 = icmp eq i32 %11, 2
  br i1 %12, label %13, label %32

13:                                               ; preds = %2
  call void @llvm.lifetime.start.p0(i64 8, ptr %6) #3
  %14 = icmp eq ptr %9, null
  br i1 %14, label %17, label %15

15:                                               ; preds = %13
  %16 = call ptr @__dynamic_cast(ptr %9, ptr @_ZTI18FunctionInvocation, ptr @_ZTI22FunctionInvocationUser, i64 0) #3
  br label %18

17:                                               ; preds = %13
  br label %18

18:                                               ; preds = %17, %15
  %19 = phi ptr [ %16, %15 ], [ null, %17 ]
  store ptr %19, ptr %6, align 8, !tbaa !21
  %20 = load ptr, ptr %6, align 8, !tbaa !21
  %21 = invoke noundef ptr @_ZNK22FunctionInvocationUser8get_funcEv(ptr noundef nonnull align 8 dereferenceable(65) %20)
          to label %22 unwind label %28

22:                                               ; preds = %18
  %23 = getelementptr inbounds nuw %class.Function, ptr %21, i32 0, i32 8
  %24 = load ptr, ptr %23, align 8, !tbaa !177
  %25 = getelementptr inbounds nuw %class.Variable, ptr %24, i32 0, i32 13
  %26 = invoke noundef nonnull align 8 dereferenceable(96) ptr @_ZN12CVQualifiersaSERKS_(ptr noundef nonnull align 8 dereferenceable(96) %0, ptr noundef nonnull align 8 dereferenceable(96) %25)
          to label %27 unwind label %28

27:                                               ; preds = %22
  call void @llvm.lifetime.end.p0(i64 8, ptr %6) #3
  br label %38

28:                                               ; preds = %22, %18
  %29 = landingpad { ptr, i32 }
          cleanup
  %30 = extractvalue { ptr, i32 } %29, 0
  store ptr %30, ptr %7, align 8
  %31 = extractvalue { ptr, i32 } %29, 1
  store i32 %31, ptr %8, align 4
  call void @llvm.lifetime.end.p0(i64 8, ptr %6) #3
  br label %42

32:                                               ; preds = %2
  invoke void @_ZN12CVQualifiers14add_qualifiersEbb(ptr noundef nonnull align 8 dereferenceable(96) %0, i1 noundef zeroext false, i1 noundef zeroext false)
          to label %33 unwind label %34

33:                                               ; preds = %32
  br label %38

34:                                               ; preds = %32
  %35 = landingpad { ptr, i32 }
          cleanup
  %36 = extractvalue { ptr, i32 } %35, 0
  store ptr %36, ptr %7, align 8
  %37 = extractvalue { ptr, i32 } %35, 1
  store i32 %37, ptr %8, align 4
  br label %42

38:                                               ; preds = %33, %27
  store i1 true, ptr %5, align 1
  %39 = load i1, ptr %5, align 1
  br i1 %39, label %41, label %40

40:                                               ; preds = %38
  call void @_ZN12CVQualifiersD1Ev(ptr noundef nonnull align 8 dereferenceable(96) %0) #3
  br label %41

41:                                               ; preds = %40, %38
  ret void

42:                                               ; preds = %34, %28
  call void @_ZN12CVQualifiersD1Ev(ptr noundef nonnull align 8 dereferenceable(96) %0) #3
  br label %43

43:                                               ; preds = %42
  %44 = load ptr, ptr %7, align 8
  %45 = load i32, ptr %8, align 4
  %46 = insertvalue { ptr, i32 } poison, ptr %44, 0
  %47 = insertvalue { ptr, i32 } %46, i32 %45, 1
  resume { ptr, i32 } %47
}