; Function Attrs: mustprogress uwtable
define dso_local void @_ZNK18FunctionInvocation14get_qualifiersEv(ptr dead_on_unwind noalias nonnull writable sret(%class.CVQualifiers) align 8 %0, ptr noundef nonnull readonly align 8 dereferenceable(56) %1) local_unnamed_addr #3 align 2 personality ptr @__gxx_personality_v0 {
  tail call void @_ZN12CVQualifiersC1Ev(ptr noundef nonnull align 8 dereferenceable(96) %0)
  %3 = getelementptr inbounds nuw i8, ptr %1, i64 8
  %4 = load i32, ptr %3, align 8, !tbaa !121
  %5 = icmp eq i32 %4, 2
  br i1 %5, label %6, label %16

6:                                                ; preds = %2
  %7 = tail call ptr @__dynamic_cast(ptr nonnull %1, ptr nonnull @_ZTI18FunctionInvocation, ptr nonnull @_ZTI22FunctionInvocationUser, i64 0) #26
  %8 = getelementptr inbounds nuw i8, ptr %7, i64 56
  %9 = load ptr, ptr %8, align 8, !tbaa !25
  %10 = getelementptr inbounds nuw i8, ptr %9, i64 208
  %11 = load ptr, ptr %10, align 8, !tbaa !148
  %12 = getelementptr inbounds nuw i8, ptr %11, i64 104
  %13 = invoke noundef nonnull align 8 dereferenceable(96) ptr @_ZN12CVQualifiersaSERKS_(ptr noundef nonnull align 8 dereferenceable(96) %0, ptr noundef nonnull align 8 dereferenceable(96) %12)
          to label %19 unwind label %14

14:                                               ; preds = %6
  %15 = landingpad { ptr, i32 }
          cleanup
  br label %20

16:                                               ; preds = %2
  invoke void @_ZN12CVQualifiers14add_qualifiersEbb(ptr noundef nonnull align 8 dereferenceable(96) %0, i1 noundef zeroext false, i1 noundef zeroext false)
          to label %19 unwind label %17

17:                                               ; preds = %16
  %18 = landingpad { ptr, i32 }
          cleanup
  br label %20

19:                                               ; preds = %16, %6
  ret void

20:                                               ; preds = %17, %14
  %.pn = phi { ptr, i32 } [ %15, %14 ], [ %18, %17 ]
  tail call void @_ZN12CVQualifiersD1Ev(ptr noundef nonnull align 8 dereferenceable(96) %0) #26
  resume { ptr, i32 } %.pn
}